; Function Attrs: nounwind uwtable
define hidden range(i32 0, 2) i32 @Curl_hash_offt_remove(ptr noundef %0, i64 noundef %1) local_unnamed_addr #1 {
  %3 = alloca i64, align 8
  store i64 %1, ptr %3, align 8, !tbaa !38
  %4 = load ptr, ptr %0, align 8, !tbaa !3
  %.not.i = icmp eq ptr %4, null
  br i1 %.not.i, label %Curl_hash_delete.exit, label %5

5:                                                ; preds = %2
  %6 = getelementptr inbounds nuw i8, ptr %0, i64 8
  %7 = load ptr, ptr %6, align 8, !tbaa !10
  %8 = getelementptr inbounds nuw i8, ptr %0, i64 32
  %9 = load i64, ptr %8, align 8, !tbaa !14
  %10 = call i64 %7(ptr noundef nonnull %3, i64 noundef 8, i64 noundef %9) #9
  %11 = getelementptr inbounds nuw %struct.Curl_llist, ptr %4, i64 %10
  %12 = call ptr @Curl_llist_head(ptr noundef nonnull %11) #9
  %.not24.not28.i = icmp eq ptr %12, null
  br i1 %.not24.not28.i, label %Curl_hash_delete.exit, label %.lr.ph.i

.lr.ph.i:                                         ; preds = %5
  %13 = getelementptr inbounds nuw i8, ptr %0, i64 16
  br label %14

14:                                               ; preds = %.critedge.i, %.lr.ph.i
  %.02229.i = phi ptr [ %12, %.lr.ph.i ], [ %21, %.critedge.i ]
  %15 = call ptr @Curl_node_elem(ptr noundef nonnull %.02229.i) #9
  %16 = load ptr, ptr %13, align 8, !tbaa !11
  %17 = getelementptr inbounds nuw i8, ptr %15, i64 56
  %18 = getelementptr inbounds nuw i8, ptr %15, i64 48
  %19 = load i64, ptr %18, align 8, !tbaa !18
  %20 = call i64 %16(ptr noundef nonnull %17, i64 noundef %19, ptr noundef nonnull %3, i64 noundef 8) #9
  %.not25.i = icmp eq i64 %20, 0
  br i1 %.not25.i, label %.critedge.i, label %22

.critedge.i:                                      ; preds = %14
  %21 = call ptr @Curl_node_next(ptr noundef nonnull %.02229.i) #9
  %.not24.not.i = icmp eq ptr %21, null
  br i1 %.not24.not.i, label %Curl_hash_delete.exit, label %14, !llvm.loop !25

22:                                               ; preds = %14
  call void @Curl_node_uremove(ptr noundef nonnull %.02229.i, ptr noundef nonnull %0) #9
  %23 = getelementptr inbounds nuw i8, ptr %0, i64 40
  %24 = load i64, ptr %23, align 8, !tbaa !13
  %25 = add i64 %24, -1
  store i64 %25, ptr %23, align 8, !tbaa !13
  br label %Curl_hash_delete.exit

Curl_hash_delete.exit:                            ; preds = %.critedge.i, %2, %5, %22
  %.3.i = phi i32 [ 0, %22 ], [ 1, %2 ], [ 1, %5 ], [ 1, %.critedge.i ]
  ret i32 %.3.i
}